; Function Attrs: nounwind uwtable
define internal range(i32 0, 2) i32 @motion_notify_callback_source(ptr noundef %0, ptr noundef readonly captures(none) %1, ptr noundef %2) #0 {
  %4 = getelementptr inbounds nuw i8, ptr %2, i64 136
  %5 = tail call fastcc i32 @handle_motion(ptr noundef %0, ptr noundef %1, ptr noundef nonnull %4)
  %.not = icmp eq i32 %5, 0
  br i1 %.not, label %12, label %6

6:                                                ; preds = %3
  %7 = getelementptr inbounds nuw i8, ptr %2, i64 352
  %8 = load ptr, ptr %7, align 8, !tbaa !64
  %.not.i = icmp eq ptr %8, null
  br i1 %.not.i, label %collect_source_patches.exit, label %9

9:                                                ; preds = %6
  %10 = getelementptr inbounds nuw i8, ptr %8, i64 16
  %11 = load ptr, ptr %10, align 8, !tbaa !75
  tail call void @g_hash_table_foreach(ptr noundef %11, ptr noundef nonnull @collect_source_patches_foreach, ptr noundef nonnull %2) #24
  br label %collect_source_patches.exit

collect_source_patches.exit:                      ; preds = %6, %9
  tail call fastcc void @update_table(ptr noundef nonnull %2)
  br label %12

12:                                               ; preds = %collect_source_patches.exit, %3
  ret i32 %5
}